; Function Attrs: mustprogress nofree norecurse nosync nounwind willreturn memory(read, inaccessiblemem: none) uwtable
define noundef i32 @_ZNK6icu_7716JapaneseCalendar14internalGetEraEv(ptr noundef nonnull readonly align 8 captures(none) dereferenceable(222) %0) unnamed_addr #9 align 2 {
_ZNK6icu_778Calendar11internalGetE19UCalendarDateFieldsi.exit:
  %1 = load i32, ptr @_ZL11gCurrentEra, align 4, !tbaa !3
  %2 = getelementptr inbounds nuw i8, ptr %0, i64 104
  %3 = load i8, ptr %2, align 8, !tbaa !23
  %4 = icmp sgt i8 %3, 0
  %5 = getelementptr inbounds nuw i8, ptr %0, i64 8
  %6 = load i32, ptr %5, align 8
  %7 = select i1 %4, i32 %6, i32 %1
  ret i32 %7
}